; Function Attrs: mustprogress uwtable
define void @_ZNK32pxrInternal_v0_24__pxrReserved__34HdFlattenedXformDataSourceProvider34ComputeDirtyLocatorsForDescendantsEPNS_22HdDataSourceLocatorSetE(ptr nocapture nonnull readnone align 8 %0, ptr noundef %1) unnamed_addr #0 align 2 {
  %3 = tail call noundef nonnull align 8 dereferenceable(456) ptr @_ZN32pxrInternal_v0_24__pxrReserved__22HdDataSourceLocatorSet12UniversalSetEv()
  %.not.i.i = icmp eq ptr %1, %3
  br i1 %.not.i.i, label %_ZN32pxrInternal_v0_24__pxrReserved__22HdDataSourceLocatorSetaSERKS0_.exit, label %4

4:                                                ; preds = %2
  %5 = getelementptr inbounds nuw i8, ptr %3, i64 452
  %6 = load i32, ptr %5, align 4
  %7 = icmp ult i32 %6, 9
  %8 = load ptr, ptr %3, align 8
  %spec.select.i.i.i.i = select i1 %7, ptr %3, ptr %8
  %9 = getelementptr inbounds nuw i8, ptr %3, i64 448
  %10 = load i32, ptr %9, align 8
  %11 = zext i32 %10 to i64
  %12 = getelementptr inbounds %"class.pxrInternal_v0_24__pxrReserved__::HdDataSourceLocator", ptr %spec.select.i.i.i.i, i64 %11
  tail call void @_ZN32pxrInternal_v0_24__pxrReserved__13TfSmallVectorINS_19HdDataSourceLocatorELj8EE6assignIPKS1_vEEvT_S6_(ptr noundef nonnull align 8 dereferenceable(456) %1, ptr noundef %spec.select.i.i.i.i, ptr noundef %12)
  br label %_ZN32pxrInternal_v0_24__pxrReserved__22HdDataSourceLocatorSetaSERKS0_.exit

_ZN32pxrInternal_v0_24__pxrReserved__22HdDataSourceLocatorSetaSERKS0_.exit: ; preds = %2, %4
  ret void
}